Certificate:
    Data:
        Version: 3 (0x2)
        Serial Number:
            ce:09:3e:bc:1b:68:32:3e:e2:a4:41:52:d5:3f:d7:a3
        Signature Algorithm: sha256WithRSAEncryption
        Issuer: CN=Easy-RSA CA
        Validity
            Not Before: Aug  9 20:31:27 2022 GMT
            Not After : Nov 11 20:31:27 2024 GMT
        Subject: CN=hfg.domain.tld
        Subject Public Key Info:
            Public Key Algorithm: rsaEncryption
                RSA Public-Key: (2048 bit)
                Modulus:
                    00:e6:69:68:d8:16:07:ae:b4:5a:20:8c:4f:70:24:
                    43:ff:82:72:75:3f:85:1c:d9:78:e9:42:90:ce:96:
                    98:3f:d3:54:ef:1c:f3:c6:09:35:4b:6f:8f:e1:13:
                    00:a1:0b:98:dd:d6:25:6f:ff:e6:4c:11:30:a6:ea:
                    85:57:53:58:c7:03:3b:4f:1b:56:ce:2a:6e:7d:40:
                    16:8e:71:e1:13:80:6c:da:86:ac:e2:d8:41:02:12:
                    64:88:6e:74:16:50:c7:4e:4f:50:1d:03:ca:03:2c:
                    72:59:fe:d6:f0:5f:1f:46:35:7a:e6:f9:84:bc:f6:
                    4b:ab:ea:c0:a6:38:e8:a1:8f:62:86:8d:ad:96:1a:
                    de:92:0e:76:85:0d:b7:a6:53:69:b3:1b:27:50:12:
                    94:a7:6b:48:3b:e7:e7:e7:38:4e:17:2f:cf:36:10:
                    b5:4a:42:21:eb:df:1e:b5:3b:37:19:e0:34:7f:9b:
                    89:97:31:4e:76:c9:24:1c:7a:73:16:33:71:3b:e0:
                    06:81:64:f5:7b:0f:bb:3f:b7:f6:44:a1:23:c0:10:
                    e9:91:65:8e:50:66:63:d0:1e:a9:c9:8a:f4:ff:68:
                    39:87:03:7e:b4:89:93:38:f0:ef:36:f6:78:ab:68:
                    8f:ed:a6:91:15:35:84:a4:a4:01:e1:6f:4a:59:61:
                    71:73
                Exponent: 65537 (0x10001)
        X509v3 extensions:
            X509v3 Basic Constraints: 
                CA:FALSE
            X509v3 Subject Key Identifier: 
                D8:53:C3:84:FD:27:51:09:91:BC:8A:90:CB:45:C1:E0:6C:7E:10:8F
            X509v3 Authority Key Identifier: 
                keyid:DA:EB:EC:2F:E2:90:67:B6:DB:0D:FF:43:59:5A:B8:5B:54:00:93:D6
                DirName:/CN=Easy-RSA CA
                serial:7F:CC:7A:D5:10:0C:19:C3:10:CA:6D:85:EA:C8:B6:6E:39:1F:2D:CD

            X509v3 Extended Key Usage: 
                TLS Web Client Authentication
            X509v3 Key Usage: 
                Digital Signature
    Signature Algorithm: sha256WithRSAEncryption
         38:1e:91:e4:a3:52:79:08:3b:e8:06:4b:ab:ce:79:49:13:ae:
         06:2c:2e:2a:ab:fd:49:74:a5:56:ba:bb:fe:72:4c:08:f2:dc:
         76:cf:1b:3c:7f:15:df:d9:c9:13:99:3e:35:27:88:22:56:e2:
         8f:cc:a2:ae:7d:a5:7d:4d:f0:b2:bf:fb:82:ed:d3:5c:dc:8e:
         e8:ff:2a:23:0a:3d:d3:97:40:1a:bd:23:b5:22:f5:ae:78:c4:
         cd:b6:f9:99:ae:e1:68:1a:48:f3:9a:48:ce:0a:18:ff:90:bc:
         c0:0e:8f:03:fb:ed:4a:c7:d5:56:ca:2d:03:7e:a3:b3:bf:88:
         dd:3e:9f:80:e1:17:97:f4:6a:30:5d:21:c6:f0:63:6d:c1:60:
         31:19:53:2f:8f:8f:1c:d5:02:51:4f:44:47:2c:f3:2b:67:80:
         f8:b1:20:75:cf:23:83:d9:d2:a0:b3:96:d3:e9:f5:50:cd:f4:
         31:4a:69:e7:5e:80:21:65:fe:f4:a4:da:13:7a:8f:b1:40:35:
         52:1e:d6:f1:dd:b3:0d:a3:a2:61:a1:46:7e:88:d7:9f:3a:7a:
         1b:5c:9a:fc:bf:b0:93:59:7d:7f:bb:f3:d2:9b:65:60:2a:0d:
         15:9c:b2:90:2c:da:b2:c5:25:68:56:5a:e7:78:85:66:5e:88:
         33:27:f6:d1
-----BEGIN CERTIFICATE-----
MIIDXTCCAkWgAwIBAgIRAM4JPrwbaDI+4qRBUtU/16MwDQYJKoZIhvcNAQELBQAw
FjEUMBIGA1UEAwwLRWFzeS1SU0EgQ0EwHhcNMjIwODA5MjAzMTI3WhcNMjQxMTEx
MjAzMTI3WjAZMRcwFQYDVQQDDA5oZmcuZG9tYWluLnRsZDCCASIwDQYJKoZIhvcN
AQEBBQADggEPADCCAQoCggEBAOZpaNgWB660WiCMT3AkQ/+CcnU/hRzZeOlCkM6W
mD/TVO8c88YJNUtvj+ETAKELmN3WJW//5kwRMKbqhVdTWMcDO08bVs4qbn1AFo5x
4ROAbNqGrOLYQQISZIhudBZQx05PUB0DygMscln+1vBfH0Y1eub5hLz2S6vqwKY4
6KGPYoaNrZYa3pIOdoUNt6ZTabMbJ1ASlKdrSDvn5+c4ThcvzzYQtUpCIevfHrU7
NxngNH+biZcxTnbJJBx6cxYzcTvgBoFk9XsPuz+39kShI8AQ6ZFljlBmY9AeqcmK
9P9oOYcDfrSJkzjw7zb2eKtoj+2mkRU1hKSkAeFvSllhcXMCAwEAAaOBojCBnzAJ
BgNVHRMEAjAAMB0GA1UdDgQWBBTYU8OE/SdRCZG8ipDLRcHgbH4QjzBRBgNVHSME
SjBIgBTa6+wv4pBnttsN/0NZWrhbVACT1qEapBgwFjEUMBIGA1UEAwwLRWFzeS1S
U0EgQ0GCFH/MetUQDBnDEMptherItm45Hy3NMBMGA1UdJQQMMAoGCCsGAQUFBwMC
MAsGA1UdDwQEAwIHgDANBgkqhkiG9w0BAQsFAAOCAQEAOB6R5KNSeQg76AZLq855
SROuBiwuKqv9SXSlVrq7/nJMCPLcds8bPH8V39nJE5k+NSeIIlbij8yirn2lfU3w
sr/7gu3TXNyO6P8qIwo905dAGr0jtSL1rnjEzbb5ma7haBpI85pIzgoY/5C8wA6P
A/vtSsfVVsotA36js7+I3T6fgOEXl/RqMF0hxvBjbcFgMRlTL4+PHNUCUU9ERyzz
K2eA+LEgdc8jg9nSoLOW0+n1UM30MUpp516AIWX+9KTaE3qPsUA1Uh7W8d2zDaOi
YaFGfojXnzp6G1ya/L+wk1l9f7vz0ptlYCoNFZyykCzassUlaFZa53iFZl6IMyf2
0Q==
-----END CERTIFICATE-----
